; Function Attrs: mustprogress uwtable
define void @_ZNK32pxrInternal_v0_24__pxrReserved__36HdFlattenedOverlayDataSourceProvider22GetFlattenedDataSourceERKNS_29HdFlattenedDataSourceProvider7ContextE(ptr dead_on_unwind noalias writable sret(%"class.std::shared_ptr") align 8 %0, ptr nonnull readnone align 8 captures(none) %1, ptr noundef nonnull align 8 dereferenceable(32) %2) unnamed_addr #0 align 2 personality ptr @__gxx_personality_v0 {
  %4 = alloca %"class.std::shared_ptr", align 8
  %5 = alloca %"class.std::shared_ptr", align 8
  call void @_ZNK32pxrInternal_v0_24__pxrReserved__29HdFlattenedDataSourceProvider7Context18GetInputDataSourceEv(ptr dead_on_unwind nonnull writable sret(%"class.std::shared_ptr") align 8 %4, ptr noundef nonnull align 8 dereferenceable(32) %2)
  invoke void @_ZNK32pxrInternal_v0_24__pxrReserved__29HdFlattenedDataSourceProvider7Context36GetFlattenedDataSourceFromParentPrimEv(ptr dead_on_unwind nonnull writable sret(%"class.std::shared_ptr") align 8 %5, ptr noundef nonnull align 8 dereferenceable(32) %2)
          to label %6 unwind label %80

6:                                                ; preds = %3
  invoke void @_ZN32pxrInternal_v0_24__pxrReserved__28HdOverlayContainerDataSource29OverlayedContainerDataSourcesERKSt10shared_ptrINS_21HdContainerDataSourceEES5_(ptr dead_on_unwind writable sret(%"class.std::shared_ptr") align 8 %0, ptr noundef nonnull align 8 dereferenceable(16) %4, ptr noundef nonnull align 8 dereferenceable(16) %5)
          to label %7 unwind label %82

7:                                                ; preds = %6
  %8 = getelementptr inbounds nuw i8, ptr %5, i64 8
  %9 = load ptr, ptr %8, align 8
  %.not.i.i.i = icmp eq ptr %9, null
  br i1 %.not.i.i.i, label %_ZNSt10shared_ptrIN32pxrInternal_v0_24__pxrReserved__21HdContainerDataSourceEED2Ev.exit, label %10

10:                                               ; preds = %7
  %11 = getelementptr inbounds nuw i8, ptr %9, i64 8
  %12 = load atomic i64, ptr %11 acquire, align 8
  %13 = icmp eq i64 %12, 4294967297
  %14 = trunc i64 %12 to i32
  br i1 %13, label %15, label %20

15:                                               ; preds = %10
  store i32 0, ptr %11, align 8
  %16 = getelementptr inbounds nuw i8, ptr %9, i64 12
  store i32 0, ptr %16, align 4
  %17 = load ptr, ptr %9, align 8
  %18 = getelementptr inbounds nuw i8, ptr %17, i64 16
  %19 = load ptr, ptr %18, align 8
  call void %19(ptr noundef nonnull align 8 dereferenceable(16) %9) #6
  br label %_ZNSt16_Sp_counted_baseILN9__gnu_cxx12_Lock_policyE2EE24_M_release_last_use_coldEv.exit.sink.split.i.i.i.i

20:                                               ; preds = %10
  %21 = load i8, ptr @__libc_single_threaded, align 1
  %.not.i.i.i.i = icmp eq i8 %21, 0
  br i1 %.not.i.i.i.i, label %24, label %22

22:                                               ; preds = %20
  %23 = add nsw i32 %14, -1
  store i32 %23, ptr %11, align 4
  br label %26

24:                                               ; preds = %20
  %25 = atomicrmw volatile add ptr %11, i32 -1 acq_rel, align 4
  br label %26

26:                                               ; preds = %24, %22
  %.0.i.i.i.i = phi i32 [ %14, %22 ], [ %25, %24 ]
  %27 = icmp eq i32 %.0.i.i.i.i, 1
  br i1 %27, label %28, label %_ZNSt10shared_ptrIN32pxrInternal_v0_24__pxrReserved__21HdContainerDataSourceEED2Ev.exit

28:                                               ; preds = %26
  %29 = load ptr, ptr %9, align 8
  %30 = getelementptr inbounds nuw i8, ptr %29, i64 16
  %31 = load ptr, ptr %30, align 8
  call void %31(ptr noundef nonnull align 8 dereferenceable(16) %9) #6
  %32 = getelementptr inbounds nuw i8, ptr %9, i64 12
  %33 = load i8, ptr @__libc_single_threaded, align 1
  %.not.i.i.i.i.i.i = icmp eq i8 %33, 0
  br i1 %.not.i.i.i.i.i.i, label %37, label %34

34:                                               ; preds = %28
  %35 = load i32, ptr %32, align 4
  %36 = add nsw i32 %35, -1
  store i32 %36, ptr %32, align 4
  br label %39

37:                                               ; preds = %28
  %38 = atomicrmw volatile add ptr %32, i32 -1 acq_rel, align 4
  br label %39

39:                                               ; preds = %37, %34
  %.0.i.i.i.i.i.i = phi i32 [ %35, %34 ], [ %38, %37 ]
  %40 = icmp eq i32 %.0.i.i.i.i.i.i, 1
  br i1 %40, label %_ZNSt16_Sp_counted_baseILN9__gnu_cxx12_Lock_policyE2EE24_M_release_last_use_coldEv.exit.sink.split.i.i.i.i, label %_ZNSt10shared_ptrIN32pxrInternal_v0_24__pxrReserved__21HdContainerDataSourceEED2Ev.exit

_ZNSt16_Sp_counted_baseILN9__gnu_cxx12_Lock_policyE2EE24_M_release_last_use_coldEv.exit.sink.split.i.i.i.i: ; preds = %39, %15
  %41 = load ptr, ptr %9, align 8
  %42 = getelementptr inbounds nuw i8, ptr %41, i64 24
  %43 = load ptr, ptr %42, align 8
  call void %43(ptr noundef nonnull align 8 dereferenceable(16) %9) #6
  br label %_ZNSt10shared_ptrIN32pxrInternal_v0_24__pxrReserved__21HdContainerDataSourceEED2Ev.exit

_ZNSt10shared_ptrIN32pxrInternal_v0_24__pxrReserved__21HdContainerDataSourceEED2Ev.exit: ; preds = %7, %26, %39, %_ZNSt16_Sp_counted_baseILN9__gnu_cxx12_Lock_policyE2EE24_M_release_last_use_coldEv.exit.sink.split.i.i.i.i
  %44 = getelementptr inbounds nuw i8, ptr %4, i64 8
  %45 = load ptr, ptr %44, align 8
  %.not.i.i.i5 = icmp eq ptr %45, null
  br i1 %.not.i.i.i5, label %_ZNSt10shared_ptrIN32pxrInternal_v0_24__pxrReserved__21HdContainerDataSourceEED2Ev.exit11, label %46

46:                                               ; preds = %_ZNSt10shared_ptrIN32pxrInternal_v0_24__pxrReserved__21HdContainerDataSourceEED2Ev.exit
  %47 = getelementptr inbounds nuw i8, ptr %45, i64 8
  %48 = load atomic i64, ptr %47 acquire, align 8
  %49 = icmp eq i64 %48, 4294967297
  %50 = trunc i64 %48 to i32
  br i1 %49, label %51, label %56

51:                                               ; preds = %46
  store i32 0, ptr %47, align 8
  %52 = getelementptr inbounds nuw i8, ptr %45, i64 12
  store i32 0, ptr %52, align 4
  %53 = load ptr, ptr %45, align 8
  %54 = getelementptr inbounds nuw i8, ptr %53, i64 16
  %55 = load ptr, ptr %54, align 8
  call void %55(ptr noundef nonnull align 8 dereferenceable(16) %45) #6
  br label %_ZNSt16_Sp_counted_baseILN9__gnu_cxx12_Lock_policyE2EE24_M_release_last_use_coldEv.exit.sink.split.i.i.i.i10

56:                                               ; preds = %46
  %57 = load i8, ptr @__libc_single_threaded, align 1
  %.not.i.i.i.i6 = icmp eq i8 %57, 0
  br i1 %.not.i.i.i.i6, label %60, label %58

58:                                               ; preds = %56
  %59 = add nsw i32 %50, -1
  store i32 %59, ptr %47, align 4
  br label %62

60:                                               ; preds = %56
  %61 = atomicrmw volatile add ptr %47, i32 -1 acq_rel, align 4
  br label %62

62:                                               ; preds = %60, %58
  %.0.i.i.i.i7 = phi i32 [ %50, %58 ], [ %61, %60 ]
  %63 = icmp eq i32 %.0.i.i.i.i7, 1
  br i1 %63, label %64, label %_ZNSt10shared_ptrIN32pxrInternal_v0_24__pxrReserved__21HdContainerDataSourceEED2Ev.exit11

64:                                               ; preds = %62
  %65 = load ptr, ptr %45, align 8
  %66 = getelementptr inbounds nuw i8, ptr %65, i64 16
  %67 = load ptr, ptr %66, align 8
  call void %67(ptr noundef nonnull align 8 dereferenceable(16) %45) #6
  %68 = getelementptr inbounds nuw i8, ptr %45, i64 12
  %69 = load i8, ptr @__libc_single_threaded, align 1
  %.not.i.i.i.i.i.i8 = icmp eq i8 %69, 0
  br i1 %.not.i.i.i.i.i.i8, label %73, label %70

70:                                               ; preds = %64
  %71 = load i32, ptr %68, align 4
  %72 = add nsw i32 %71, -1
  store i32 %72, ptr %68, align 4
  br label %75

73:                                               ; preds = %64
  %74 = atomicrmw volatile add ptr %68, i32 -1 acq_rel, align 4
  br label %75

75:                                               ; preds = %73, %70
  %.0.i.i.i.i.i.i9 = phi i32 [ %71, %70 ], [ %74, %73 ]
  %76 = icmp eq i32 %.0.i.i.i.i.i.i9, 1
  br i1 %76, label %_ZNSt16_Sp_counted_baseILN9__gnu_cxx12_Lock_policyE2EE24_M_release_last_use_coldEv.exit.sink.split.i.i.i.i10, label %_ZNSt10shared_ptrIN32pxrInternal_v0_24__pxrReserved__21HdContainerDataSourceEED2Ev.exit11

_ZNSt16_Sp_counted_baseILN9__gnu_cxx12_Lock_policyE2EE24_M_release_last_use_coldEv.exit.sink.split.i.i.i.i10: ; preds = %75, %51
  %77 = load ptr, ptr %45, align 8
  %78 = getelementptr inbounds nuw i8, ptr %77, i64 24
  %79 = load ptr, ptr %78, align 8
  call void %79(ptr noundef nonnull align 8 dereferenceable(16) %45) #6
  br label %_ZNSt10shared_ptrIN32pxrInternal_v0_24__pxrReserved__21HdContainerDataSourceEED2Ev.exit11

_ZNSt10shared_ptrIN32pxrInternal_v0_24__pxrReserved__21HdContainerDataSourceEED2Ev.exit11: ; preds = %_ZNSt10shared_ptrIN32pxrInternal_v0_24__pxrReserved__21HdContainerDataSourceEED2Ev.exit, %62, %75, %_ZNSt16_Sp_counted_baseILN9__gnu_cxx12_Lock_policyE2EE24_M_release_last_use_coldEv.exit.sink.split.i.i.i.i10
  ret void

80:                                               ; preds = %3
  %81 = landingpad { ptr, i32 }
          cleanup
  br label %84

82:                                               ; preds = %6
  %83 = landingpad { ptr, i32 }
          cleanup
  call void @_ZNSt10shared_ptrIN32pxrInternal_v0_24__pxrReserved__21HdContainerDataSourceEED2Ev(ptr noundef nonnull align 8 dereferenceable(16) %5) #6
  br label %84

84:                                               ; preds = %82, %80
  %.pn = phi { ptr, i32 } [ %83, %82 ], [ %81, %80 ]
  call void @_ZNSt10shared_ptrIN32pxrInternal_v0_24__pxrReserved__21HdContainerDataSourceEED2Ev(ptr noundef nonnull align 8 dereferenceable(16) %4) #6
  resume { ptr, i32 } %.pn
}